; Function Attrs: mustprogress nofree norecurse nosync nounwind willreturn memory(read, inaccessiblemem: none) uwtable
define internal ptr @urlcontext_child_next(ptr noundef readonly captures(none) %0, ptr noundef readnone captures(address_is_null) %1) #8 {
  %.not = icmp eq ptr %1, null
  br i1 %.not, label %3, label %11

3:                                                ; preds = %2
  %4 = getelementptr inbounds nuw i8, ptr %0, i64 16
  %5 = load ptr, ptr %4, align 8, !tbaa !67
  %.not7 = icmp eq ptr %5, null
  br i1 %.not7, label %11, label %6

6:                                                ; preds = %3
  %7 = getelementptr inbounds nuw i8, ptr %0, i64 8
  %8 = load ptr, ptr %7, align 8, !tbaa !21
  %9 = getelementptr inbounds nuw i8, ptr %8, i64 120
  %10 = load ptr, ptr %9, align 8, !tbaa !68
  %.not8 = icmp eq ptr %10, null
  br i1 %.not8, label %11, label %12

11:                                               ; preds = %6, %3, %2
  br label %12

12:                                               ; preds = %6, %11
  %.0 = phi ptr [ null, %11 ], [ %5, %6 ]
  ret ptr %.0
}